target datalayout = "e-m:e-p270:32:32-p271:32:32-p272:64:64-i64:64-i128:128-f80:128-n8:16:32:64-S128"
target triple = "x86_64-pc-linux-gnu"

%class.Symbol = type { i32, i16, [2 x i8] }
%"struct.Atomic::CmpxchgImpl" = type { i8 }
%"struct.Atomic::PlatformCmpxchg" = type { i8 }

@g_assert_poison = external global ptr, align 8
@.str.6 = private unnamed_addr constant [34 x i8] c"src/hotspot/share/oops/symbol.cpp\00", align 1
@.str.8 = private unnamed_addr constant [19 x i8] c"refcount underflow\00", align 1

; Function Attrs: mustprogress nounwind uwtable
define linkonce_odr hidden noundef i32 @_ZNK6Atomic15PlatformCmpxchgILm4EEclIjEET_PVS3_S3_S3_19atomic_memory_order(ptr noundef nonnull align 1 dereferenceable(1) %0, ptr noundef %1, i32 noundef %2, i32 noundef %3, i32 noundef %4) #1 comdat align 2 {
  %6 = alloca ptr, align 8
  %7 = alloca ptr, align 8
  %8 = alloca i32, align 4
  %9 = alloca i32, align 4
  %10 = alloca i32, align 4
  store ptr %0, ptr %6, align 8
  store ptr %1, ptr %7, align 8
  store i32 %2, ptr %8, align 4
  store i32 %3, ptr %9, align 4
  store i32 %4, ptr %10, align 4
  %11 = load i32, ptr %9, align 4
  %12 = load i32, ptr %8, align 4
  %13 = load ptr, ptr %7, align 8
  %14 = call i32 asm sideeffect "lock cmpxchgl $1,($3)", "={ax},r,{ax},r,~{cc},~{memory},~{dirflag},~{fpsr},~{flags}"(i32 %11, i32 %12, ptr %13) #10, !srcloc !18
  store i32 %14, ptr %9, align 4
  %15 = load i32, ptr %9, align 4
  ret i32 %15
}

; Function Attrs: mustprogress nounwind uwtable
define linkonce_odr hidden noundef i32 @_ZNK6Atomic11CmpxchgImplIjjjvEclEPVjjj19atomic_memory_order(ptr noundef nonnull align 1 dereferenceable(1) %0, ptr noundef %1, i32 noundef %2, i32 noundef %3, i32 noundef %4) #1 comdat align 2 {
  %6 = alloca ptr, align 8
  %7 = alloca ptr, align 8
  %8 = alloca i32, align 4
  %9 = alloca i32, align 4
  %10 = alloca i32, align 4
  %11 = alloca %"struct.Atomic::PlatformCmpxchg", align 1
  store ptr %0, ptr %6, align 8
  store ptr %1, ptr %7, align 8
  store i32 %2, ptr %8, align 4
  store i32 %3, ptr %9, align 4
  store i32 %4, ptr %10, align 4
  %12 = load ptr, ptr %7, align 8
  %13 = load i32, ptr %8, align 4
  %14 = load i32, ptr %9, align 4
  %15 = load i32, ptr %10, align 4
  %16 = call noundef i32 @_ZNK6Atomic15PlatformCmpxchgILm4EEclIjEET_PVS3_S3_S3_19atomic_memory_order(ptr noundef nonnull align 1 dereferenceable(1) %11, ptr noundef %12, i32 noundef %13, i32 noundef %14, i32 noundef %15)
  ret i32 %16
}

; Function Attrs: mustprogress nounwind uwtable
define linkonce_odr hidden noundef i32 @_ZN6Atomic7cmpxchgIjjjEET_PVS1_T0_T1_19atomic_memory_order(ptr noundef %0, i32 noundef %1, i32 noundef %2, i32 noundef %3) #1 comdat align 2 {
  %5 = alloca ptr, align 8
  %6 = alloca i32, align 4
  %7 = alloca i32, align 4
  %8 = alloca i32, align 4
  %9 = alloca %"struct.Atomic::CmpxchgImpl", align 1
  store ptr %0, ptr %5, align 8
  store i32 %1, ptr %6, align 4
  store i32 %2, ptr %7, align 4
  store i32 %3, ptr %8, align 4
  %10 = load ptr, ptr %5, align 8
  %11 = load i32, ptr %6, align 4
  %12 = load i32, ptr %7, align 4
  %13 = load i32, ptr %8, align 4
  %14 = call noundef i32 @_ZNK6Atomic11CmpxchgImplIjjjvEclEPVjjj19atomic_memory_order(ptr noundef nonnull align 1 dereferenceable(1) %9, ptr noundef %10, i32 noundef %11, i32 noundef %12, i32 noundef %13)
  ret i32 %14
}

; Function Attrs: mustprogress nounwind uwtable
define hidden noundef i32 @_ZN6Symbol22pack_hash_and_refcountEsi(i16 noundef signext %0, i32 noundef %1) #1 align 2 {
  %3 = alloca i16, align 2
  %4 = alloca i32, align 4
  %5 = alloca i32, align 4
  %6 = alloca i32, align 4
  store i16 %0, ptr %3, align 2
  store i32 %1, ptr %4, align 4
  %7 = load i16, ptr %3, align 2
  %8 = sext i16 %7 to i32
  store i32 %8, ptr %5, align 4
  %9 = load i32, ptr %4, align 4
  store i32 %9, ptr %6, align 4
  %10 = load i32, ptr %5, align 4
  %11 = shl i32 %10, 16
  %12 = load i32, ptr %6, align 4
  %13 = or i32 %11, %12
  ret i32 %13
}

; Function Attrs: mustprogress nounwind uwtable
define linkonce_odr hidden noundef signext i16 @_ZN6Symbol12extract_hashEj(i32 noundef %0) #1 comdat align 2 {
  %2 = alloca i32, align 4
  store i32 %0, ptr %2, align 4
  %3 = load i32, ptr %2, align 4
  %4 = lshr i32 %3, 16
  %5 = trunc i32 %4 to i16
  ret i16 %5
}

; Function Attrs: mustprogress nounwind uwtable
define linkonce_odr hidden noundef i32 @_ZN6Symbol16extract_refcountEj(i32 noundef %0) #1 comdat align 2 {
  %2 = alloca i32, align 4
  store i32 %0, ptr %2, align 4
  %3 = load i32, ptr %2, align 4
  %4 = and i32 %3, 65535
  ret i32 %4
}

; Function Attrs: mustprogress nounwind uwtable
define hidden void @_ZN6Symbol14make_permanentEv(ptr noundef nonnull align 4 dereferenceable(8) %0) #1 align 2 {
  %2 = alloca ptr, align 8
  %3 = alloca i32, align 4
  %4 = alloca i32, align 4
  %5 = alloca i32, align 4
  %6 = alloca i16, align 2
  store ptr %0, ptr %2, align 8
  %7 = load ptr, ptr %2, align 8
  %8 = getelementptr inbounds %class.Symbol, ptr %7, i32 0, i32 0
  %9 = load volatile i32, ptr %8, align 4
  store i32 %9, ptr %3, align 4
  br label %10

10:                                               ; preds = %38, %1
  %11 = load i32, ptr %3, align 4
  store i32 %11, ptr %4, align 4
  %12 = load i32, ptr %4, align 4
  %13 = call noundef i32 @_ZN6Symbol16extract_refcountEj(i32 noundef %12)
  store i32 %13, ptr %5, align 4
  %14 = load i32, ptr %5, align 4
  %15 = icmp eq i32 %14, 65535
  br i1 %15, label %16, label %17

16:                                               ; preds = %10
  br label %39

17:                                               ; preds = %10
  %18 = load i32, ptr %5, align 4
  %19 = icmp eq i32 %18, 0
  br i1 %19, label %20, label %24

20:                                               ; preds = %17
  call void @_ZNK6Symbol5printEv(ptr noundef nonnull align 4 dereferenceable(8) %7)
  br label %21

21:                                               ; preds = %20
  %22 = load ptr, ptr @g_assert_poison, align 8
  store i8 88, ptr %22, align 1
  call void (i32, ptr, i32, ptr, ...) @_Z12report_fatal11VMErrorTypePKciS1_z(i32 noundef -536870912, ptr noundef @.str.6, i32 noundef 356, ptr noundef @.str.8) #11
  unreachable

23:                                               ; No predecessors!
  br label %39

24:                                               ; preds = %17
  %25 = load i32, ptr %4, align 4
  %26 = call noundef signext i16 @_ZN6Symbol12extract_hashEj(i32 noundef %25)
  store i16 %26, ptr %6, align 2
  %27 = getelementptr inbounds %class.Symbol, ptr %7, i32 0, i32 0
  %28 = load i32, ptr %4, align 4
  %29 = load i16, ptr %6, align 2
  %30 = call noundef i32 @_ZN6Symbol22pack_hash_and_refcountEsi(i16 noundef signext %29, i32 noundef 65535)
  %31 = call noundef i32 @_ZN6Atomic7cmpxchgIjjjEET_PVS1_T0_T1_19atomic_memory_order(ptr noundef %27, i32 noundef %28, i32 noundef %30, i32 noundef 8)
  store i32 %31, ptr %3, align 4
  %32 = load i32, ptr %3, align 4
  %33 = load i32, ptr %4, align 4
  %34 = icmp eq i32 %32, %33
  br i1 %34, label %35, label %36

35:                                               ; preds = %24
  br label %39

36:                                               ; preds = %24
  br label %37

37:                                               ; preds = %36
  br label %38

38:                                               ; preds = %37
  br label %10, !llvm.loop !17

39:                                               ; preds = %35, %23, %16
  ret void
}